target datalayout = "e-m:e-p270:32:32-p271:32:32-p272:64:64-i64:64-i128:128-f80:128-n8:16:32:64-S128"
target triple = "x86_64-unknown-linux-gnu"

%"class.std::set.0" = type { %"class.std::_Rb_tree.1" }
%"class.std::_Rb_tree.1" = type { %"struct.std::_Rb_tree<QuantLib::Observer *, QuantLib::Observer *, std::_Identity<QuantLib::Observer *>, std::less<QuantLib::Observer *>>::_Rb_tree_impl" }
%"struct.std::_Rb_tree<QuantLib::Observer *, QuantLib::Observer *, std::_Identity<QuantLib::Observer *>, std::less<QuantLib::Observer *>>::_Rb_tree_impl" = type { [8 x i8], %"struct.std::_Rb_tree_header" }
%"struct.std::_Rb_tree_header" = type { %"struct.std::_Rb_tree_node_base", i64 }
%"struct.std::_Rb_tree_node_base" = type { i32, ptr, ptr, ptr }
%"class.std::set" = type { %"class.std::_Rb_tree" }
%"class.std::_Rb_tree" = type { %"struct.std::_Rb_tree<boost::shared_ptr<QuantLib::Observable>, boost::shared_ptr<QuantLib::Observable>, std::_Identity<boost::shared_ptr<QuantLib::Observable>>, std::less<boost::shared_ptr<QuantLib::Observable>>>::_Rb_tree_impl" }
%"struct.std::_Rb_tree<boost::shared_ptr<QuantLib::Observable>, boost::shared_ptr<QuantLib::Observable>, std::_Identity<boost::shared_ptr<QuantLib::Observable>>, std::less<boost::shared_ptr<QuantLib::Observable>>>::_Rb_tree_impl" = type { [8 x i8], %"struct.std::_Rb_tree_header" }
%"class.boost::detail::shared_count" = type { ptr }
%"class.QuantLib::Observable" = type { ptr, %"class.std::set.0" }
%"class.QuantLib::Observer" = type { ptr, %"class.std::set" }
%"class.std::vector.35" = type { %"struct.std::_Vector_base.36" }
%"struct.std::_Vector_base.36" = type { %"struct.std::_Vector_base<double, std::allocator<double>>::_Vector_impl" }
%"struct.std::_Vector_base<double, std::allocator<double>>::_Vector_impl" = type { %"struct.std::_Vector_base<double, std::allocator<double>>::_Vector_impl_data" }
%"struct.std::_Vector_base<double, std::allocator<double>>::_Vector_impl_data" = type { ptr, ptr, ptr }
%"class.QuantLib::FloatingRateCouponPricer.base" = type { ptr }
%"class.QuantLib::RangeAccrualPricerByBgm" = type { %"class.QuantLib::RangeAccrualPricer.base", double, i8, i8, %"class.boost::shared_ptr.48", %"class.boost::shared_ptr.48", double, %"class.QuantLib::Observer", %"class.QuantLib::Observable" }
%"class.QuantLib::RangeAccrualPricer.base" = type { %"class.QuantLib::FloatingRateCouponPricer.base", ptr, double, double, double, %"class.std::vector.35", %"class.std::vector.35", %"class.std::vector.35", i64, double, double, double, double, double, double }
%"class.boost::shared_ptr.48" = type { ptr, %"class.boost::detail::shared_count" }

; Function Attrs: mustprogress uwtable
define noundef double @_ZNK8QuantLib23RangeAccrualPricerByBgm12digitalPriceEdddd(ptr noundef nonnull align 8 dereferenceable(224) %this, double noundef %strike, double noundef %initialValue, double noundef %expiry, double noundef %deflator) #2 align 2 {
entry:
  %this.addr = alloca ptr, align 8
  %strike.addr = alloca double, align 8
  %initialValue.addr = alloca double, align 8
  %expiry.addr = alloca double, align 8
  %deflator.addr = alloca double, align 8
  %result = alloca double, align 8
  store ptr %this, ptr %this.addr, align 8, !tbaa !3
  store double %strike, ptr %strike.addr, align 8, !tbaa !31
  store double %initialValue, ptr %initialValue.addr, align 8, !tbaa !31
  store double %expiry, ptr %expiry.addr, align 8, !tbaa !31
  store double %deflator, ptr %deflator.addr, align 8, !tbaa !31
  %this1 = load ptr, ptr %this.addr, align 8
  call void @llvm.lifetime.start.p0(i64 8, ptr %result) #18
  %0 = load double, ptr %deflator.addr, align 8, !tbaa !31
  store double %0, ptr %result, align 8, !tbaa !31
  %1 = load double, ptr %strike.addr, align 8, !tbaa !31
  %eps_ = getelementptr inbounds nuw %"class.QuantLib::RangeAccrualPricerByBgm", ptr %this1, i32 0, i32 6
  %2 = load double, ptr %eps_, align 8, !tbaa !96
  %div = fdiv double %2, 2.000000e+00
  %cmp = fcmp ogt double %1, %div
  br i1 %cmp, label %if.then, label %if.end4

if.then:                                          ; preds = %entry
  %withSmile_ = getelementptr inbounds nuw %"class.QuantLib::RangeAccrualPricerByBgm", ptr %this1, i32 0, i32 2
  %3 = load i8, ptr %withSmile_, align 8, !tbaa !94, !range !15, !noundef !16
  %loadedv = trunc i8 %3 to i1
  br i1 %loadedv, label %if.then2, label %if.else

if.then2:                                         ; preds = %if.then
  %4 = load double, ptr %strike.addr, align 8, !tbaa !31
  %5 = load double, ptr %initialValue.addr, align 8, !tbaa !31
  %6 = load double, ptr %expiry.addr, align 8, !tbaa !31
  %7 = load double, ptr %deflator.addr, align 8, !tbaa !31
  %call = call noundef double @_ZNK8QuantLib23RangeAccrualPricerByBgm21digitalPriceWithSmileEdddd(ptr noundef nonnull align 8 dereferenceable(224) %this1, double noundef %4, double noundef %5, double noundef %6, double noundef %7)
  store double %call, ptr %result, align 8, !tbaa !31
  br label %if.end

if.else:                                          ; preds = %if.then
  %8 = load double, ptr %strike.addr, align 8, !tbaa !31
  %9 = load double, ptr %initialValue.addr, align 8, !tbaa !31
  %10 = load double, ptr %expiry.addr, align 8, !tbaa !31
  %11 = load double, ptr %deflator.addr, align 8, !tbaa !31
  %call3 = call noundef double @_ZNK8QuantLib23RangeAccrualPricerByBgm24digitalPriceWithoutSmileEdddd(ptr noundef nonnull align 8 dereferenceable(224) %this1, double noundef %8, double noundef %9, double noundef %10, double noundef %11)
  store double %call3, ptr %result, align 8, !tbaa !31
  br label %if.end

if.end:                                           ; preds = %if.else, %if.then2
  br label %if.end4

if.end4:                                          ; preds = %if.end, %entry
  %12 = load double, ptr %result, align 8, !tbaa !31
  call void @llvm.lifetime.end.p0(i64 8, ptr %result) #18
  ret double %12
}