; Function Attrs: mustprogress uwtable
define noundef double @_ZNK8QuantLib23RangeAccrualPricerByBgm12digitalPriceEdddd(ptr nocapture noundef nonnull readonly align 8 dereferenceable(224) %this, double noundef %strike, double noundef %initialValue, double noundef %expiry, double noundef %deflator) local_unnamed_addr #8 align 2 {
entry:
  %eps_ = getelementptr inbounds nuw i8, ptr %this, i64 216
  %0 = load double, ptr %eps_, align 8, !tbaa !163
  %div = fmul double %0, 5.000000e-01
  %cmp = fcmp ogt double %strike, %div
  br i1 %cmp, label %if.then, label %if.end4

if.then:                                          ; preds = %entry
  %withSmile_ = getelementptr inbounds nuw i8, ptr %this, i64 176
  %1 = load i8, ptr %withSmile_, align 8, !tbaa !160, !range !26, !noundef !27
  %loadedv = trunc nuw i8 %1 to i1
  br i1 %loadedv, label %if.then2, label %if.else

if.then2:                                         ; preds = %if.then
  %call = tail call noundef double @_ZNK8QuantLib23RangeAccrualPricerByBgm21digitalPriceWithSmileEdddd(ptr noundef nonnull align 8 dereferenceable(224) %this, double noundef %strike, double noundef %initialValue, double noundef %expiry, double noundef %deflator)
  br label %if.end4

if.else:                                          ; preds = %if.then
  %call3 = tail call noundef double @_ZNK8QuantLib23RangeAccrualPricerByBgm24digitalPriceWithoutSmileEdddd(ptr noundef nonnull align 8 dereferenceable(224) %this, double noundef %strike, double noundef %initialValue, double noundef %expiry, double noundef %deflator)
  br label %if.end4

if.end4:                                          ; preds = %if.then2, %if.else, %entry
  %result.0 = phi double [ %call, %if.then2 ], [ %call3, %if.else ], [ %deflator, %entry ]
  ret double %result.0
}